; Function Attrs: mustprogress nounwind uwtable
define internal void @"_ZN32pxrInternal_v0_24__pxrReserved__13TfFunctionRefIFvRPvEE9_InvokeFnIZNKS_12SdfPathTableINSt7__cxx1112basic_stringIcSt11char_traitsIcESaIcEEEE15ParallelForEachIZL10DoUnitTestvE3$_0EEvRKT_EUlS2_E_EEvPKvS2_"(ptr nocapture noundef readonly %0, ptr nocapture noundef nonnull readonly align 8 dereferenceable(8) %1) #6 align 2 {
  %.07.i = load ptr, ptr %1, align 8
  %.not8.i = icmp eq ptr %.07.i, null
  br i1 %.not8.i, label %"_ZZNK32pxrInternal_v0_24__pxrReserved__12SdfPathTableINSt7__cxx1112basic_stringIcSt11char_traitsIcESaIcEEEE15ParallelForEachIZL10DoUnitTestvE3$_0EEvRKT_ENKUlRPvE_clESE_.exit", label %.lr.ph.i

.lr.ph.i:                                         ; preds = %2, %"_ZZL10DoUnitTestvENK3$_0clERKN32pxrInternal_v0_24__pxrReserved__7SdfPathERKNSt7__cxx1112basic_stringIcSt11char_traitsIcESaIcEEE.exit.i"
  %.09.i = phi ptr [ %.0.i, %"_ZZL10DoUnitTestvENK3$_0clERKN32pxrInternal_v0_24__pxrReserved__7SdfPathERKNSt7__cxx1112basic_stringIcSt11char_traitsIcESaIcEEE.exit.i" ], [ %.07.i, %2 ]
  %3 = load ptr, ptr %0, align 8
  %4 = getelementptr inbounds nuw i8, ptr %.09.i, i64 8
  %5 = tail call noundef i32 @_ZNKSt7__cxx1112basic_stringIcSt11char_traitsIcESaIcEE7compareEPKc(ptr noundef nonnull align 8 dereferenceable(32) %4, ptr noundef nonnull @.str.117) #20
  %6 = icmp eq i32 %5, 0
  br i1 %6, label %7, label %"_ZZL10DoUnitTestvENK3$_0clERKN32pxrInternal_v0_24__pxrReserved__7SdfPathERKNSt7__cxx1112basic_stringIcSt11char_traitsIcESaIcEEE.exit.i"

7:                                                ; preds = %.lr.ph.i
  %8 = load ptr, ptr %3, align 8
  %9 = atomicrmw add ptr %8, i32 1 seq_cst, align 4
  br label %"_ZZL10DoUnitTestvENK3$_0clERKN32pxrInternal_v0_24__pxrReserved__7SdfPathERKNSt7__cxx1112basic_stringIcSt11char_traitsIcESaIcEEE.exit.i"

"_ZZL10DoUnitTestvENK3$_0clERKN32pxrInternal_v0_24__pxrReserved__7SdfPathERKNSt7__cxx1112basic_stringIcSt11char_traitsIcESaIcEEE.exit.i": ; preds = %7, %.lr.ph.i
  %10 = getelementptr inbounds nuw i8, ptr %.09.i, i64 40
  %.0.i = load ptr, ptr %10, align 8
  %.not.i = icmp eq ptr %.0.i, null
  br i1 %.not.i, label %"_ZZNK32pxrInternal_v0_24__pxrReserved__12SdfPathTableINSt7__cxx1112basic_stringIcSt11char_traitsIcESaIcEEEE15ParallelForEachIZL10DoUnitTestvE3$_0EEvRKT_ENKUlRPvE_clESE_.exit", label %.lr.ph.i, !llvm.loop !55

"_ZZNK32pxrInternal_v0_24__pxrReserved__12SdfPathTableINSt7__cxx1112basic_stringIcSt11char_traitsIcESaIcEEEE15ParallelForEachIZL10DoUnitTestvE3$_0EEvRKT_ENKUlRPvE_clESE_.exit": ; preds = %"_ZZL10DoUnitTestvENK3$_0clERKN32pxrInternal_v0_24__pxrReserved__7SdfPathERKNSt7__cxx1112basic_stringIcSt11char_traitsIcESaIcEEE.exit.i", %2
  ret void
}